target datalayout = "e-m:e-p270:32:32-p271:32:32-p272:64:64-i64:64-i128:128-f80:128-n8:16:32:64-S128"
target triple = "x86_64-pc-linux-gnu"

@hf_x11_glx_GenTextures_context_tag = internal global i32 0, align 4
@hf_x11_glx_GenTextures_n = internal global i32 0, align 4

; Function Attrs: null_pointer_is_valid sspstrong uwtable
define internal void @glxGenTextures(ptr noundef %0, ptr noundef %1, ptr noundef %2, ptr noundef %3, i32 noundef %4, i32 noundef %5) #1 {
  %7 = alloca ptr, align 8
  %8 = alloca ptr, align 8
  %9 = alloca ptr, align 8
  %10 = alloca ptr, align 8
  %11 = alloca i32, align 4
  %12 = alloca i32, align 4
  store ptr %0, ptr %7, align 8
  store ptr %1, ptr %8, align 8
  store ptr %2, ptr %9, align 8
  store ptr %3, ptr %10, align 8
  store i32 %4, ptr %11, align 4
  store i32 %5, ptr %12, align 4
  %13 = load ptr, ptr %10, align 8
  %14 = load i32, ptr @hf_x11_glx_GenTextures_context_tag, align 4
  %15 = load ptr, ptr %7, align 8
  %16 = load ptr, ptr %9, align 8
  %17 = load i32, ptr %16, align 4
  %18 = load i32, ptr %11, align 4
  %19 = call ptr @proto_tree_add_item(ptr noundef %13, i32 noundef %14, ptr noundef %15, i32 noundef %17, i32 noundef 4, i32 noundef %18)
  %20 = load ptr, ptr %9, align 8
  %21 = load i32, ptr %20, align 4
  %22 = add i32 %21, 4
  store i32 %22, ptr %20, align 4
  %23 = load ptr, ptr %10, align 8
  %24 = load i32, ptr @hf_x11_glx_GenTextures_n, align 4
  %25 = load ptr, ptr %7, align 8
  %26 = load ptr, ptr %9, align 8
  %27 = load i32, ptr %26, align 4
  %28 = load i32, ptr %11, align 4
  %29 = call ptr @proto_tree_add_item(ptr noundef %23, i32 noundef %24, ptr noundef %25, i32 noundef %27, i32 noundef 4, i32 noundef %28)
  %30 = load ptr, ptr %9, align 8
  %31 = load i32, ptr %30, align 4
  %32 = add i32 %31, 4
  store i32 %32, ptr %30, align 4
  ret void
}